; ModuleID = '10/2098.c'
source_filename = "10/2098.c"
target datalayout = "e-m:e-p270:32:32-p271:32:32-p272:64:64-i64:64-f80:128-n8:16:32:64-S128"
target triple = "x86_64-pc-linux-gnu"

@.str = private unnamed_addr constant [3 x i8] c"%d\00", align 1
@.str.1 = private unnamed_addr constant [4 x i8] c"%d\0A\00", align 1

; Function Attrs: noinline nounwind uwtable
define dso_local i32 @main(i32 %0, i8** %1) #0 {
  %3 = alloca i32, align 4
  %4 = alloca i32, align 4
  %5 = alloca i8**, align 8
  %6 = alloca [26 x i32], align 16
  %7 = alloca [26 x i32], align 16
  %8 = alloca i32, align 4
  %9 = alloca i32, align 4
  %10 = alloca i32, align 4
  %11 = alloca i32, align 4
  store i32 0, i32* %3, align 4
  store i32 %0, i32* %4, align 4
  store i8** %1, i8*** %5, align 8
  %12 = call i32 (i8*, ...) @__isoc99_scanf(i8* getelementptr inbounds ([3 x i8], [3 x i8]* @.str, i64 0, i64 0), i32* %8)
  store i32 0, i32* %9, align 4
  br label %13

13:                                               ; preds = %22, %2
  %14 = load i32, i32* %9, align 4
  %15 = load i32, i32* %8, align 4
  %16 = icmp slt i32 %14, %15
  br i1 %16, label %17, label %25

17:                                               ; preds = %13
  %18 = load i32, i32* %9, align 4
  %19 = sext i32 %18 to i64
  %20 = getelementptr inbounds [26 x i32], [26 x i32]* %7, i64 0, i64 %19
  %21 = call i32 (i8*, ...) @__isoc99_scanf(i8* getelementptr inbounds ([3 x i8], [3 x i8]* @.str, i64 0, i64 0), i32* %20)
  br label %22

22:                                               ; preds = %17
  %23 = load i32, i32* %9, align 4
  %24 = add nsw i32 %23, 1
  store i32 %24, i32* %9, align 4
  br label %13

25:                                               ; preds = %13
  %26 = getelementptr inbounds [26 x i32], [26 x i32]* %6, i64 0, i64 0
  store i32 1, i32* %26, align 16
  store i32 1, i32* %9, align 4
  br label %27

27:                                               ; preds = %69, %25
  %28 = load i32, i32* %9, align 4
  %29 = load i32, i32* %8, align 4
  %30 = icmp slt i32 %28, %29
  br i1 %30, label %31, label %72

31:                                               ; preds = %27
  store i32 0, i32* %11, align 4
  store i32 0, i32* %10, align 4
  br label %32

32:                                               ; preds = %60, %31
  %33 = load i32, i32* %10, align 4
  %34 = load i32, i32* %9, align 4
  %35 = icmp slt i32 %33, %34
  br i1 %35, label %36, label %63

36:                                               ; preds = %32
  %37 = load i32, i32* %9, align 4
  %38 = sext i32 %37 to i64
  %39 = getelementptr inbounds [26 x i32], [26 x i32]* %7, i64 0, i64 %38
  %40 = load i32, i32* %39, align 4
  %41 = load i32, i32* %10, align 4
  %42 = sext i32 %41 to i64
  %43 = getelementptr inbounds [26 x i32], [26 x i32]* %7, i64 0, i64 %42
  %44 = load i32, i32* %43, align 4
  %45 = icmp sle i32 %40, %44
  br i1 %45, label %46, label %59

46:                                               ; preds = %36
  %47 = load i32, i32* %10, align 4
  %48 = sext i32 %47 to i64
  %49 = getelementptr inbounds [26 x i32], [26 x i32]* %6, i64 0, i64 %48
  %50 = load i32, i32* %49, align 4
  %51 = load i32, i32* %11, align 4
  %52 = icmp sgt i32 %50, %51
  br i1 %52, label %53, label %58

53:                                               ; preds = %46
  %54 = load i32, i32* %10, align 4
  %55 = sext i32 %54 to i64
  %56 = getelementptr inbounds [26 x i32], [26 x i32]* %6, i64 0, i64 %55
  %57 = load i32, i32* %56, align 4
  store i32 %57, i32* %11, align 4
  br label %58

58:                                               ; preds = %53, %46
  br label %59

59:                                               ; preds = %58, %36
  br label %60

60:                                               ; preds = %59
  %61 = load i32, i32* %10, align 4
  %62 = add nsw i32 %61, 1
  store i32 %62, i32* %10, align 4
  br label %32

63:                                               ; preds = %32
  %64 = load i32, i32* %11, align 4
  %65 = add nsw i32 %64, 1
  %66 = load i32, i32* %9, align 4
  %67 = sext i32 %66 to i64
  %68 = getelementptr inbounds [26 x i32], [26 x i32]* %6, i64 0, i64 %67
  store i32 %65, i32* %68, align 4
  br label %69

69:                                               ; preds = %63
  %70 = load i32, i32* %9, align 4
  %71 = add nsw i32 %70, 1
  store i32 %71, i32* %9, align 4
  br label %27

72:                                               ; preds = %27
  store i32 0, i32* %11, align 4
  store i32 0, i32* %9, align 4
  br label %73

73:                                               ; preds = %90, %72
  %74 = load i32, i32* %9, align 4
  %75 = load i32, i32* %8, align 4
  %76 = icmp slt i32 %74, %75
  br i1 %76, label %77, label %93

77:                                               ; preds = %73
  %78 = load i32, i32* %9, align 4
  %79 = sext i32 %78 to i64
  %80 = getelementptr inbounds [26 x i32], [26 x i32]* %6, i64 0, i64 %79
  %81 = load i32, i32* %80, align 4
  %82 = load i32, i32* %11, align 4
  %83 = icmp sgt i32 %81, %82
  br i1 %83, label %84, label %89

84:                                               ; preds = %77
  %85 = load i32, i32* %9, align 4
  %86 = sext i32 %85 to i64
  %87 = getelementptr inbounds [26 x i32], [26 x i32]* %6, i64 0, i64 %86
  %88 = load i32, i32* %87, align 4
  store i32 %88, i32* %11, align 4
  br label %89

89:                                               ; preds = %84, %77
  br label %90

90:                                               ; preds = %89
  %91 = load i32, i32* %9, align 4
  %92 = add nsw i32 %91, 1
  store i32 %92, i32* %9, align 4
  br label %73

93:                                               ; preds = %73
  %94 = load i32, i32* %11, align 4
  %95 = call i32 (i8*, ...) @printf(i8* getelementptr inbounds ([4 x i8], [4 x i8]* @.str.1, i64 0, i64 0), i32 %94)
  ret i32 0
}

declare dso_local i32 @__isoc99_scanf(i8*, ...) #1

declare dso_local i32 @printf(i8*, ...) #1


!llvm.module.flags = !{!0}
!llvm.ident = !{!1}

!0 = !{i32 1, !"wchar_size", i32 4}
!1 = !{!"clang version 10.0.0-4ubuntu1 "}
